


ARM Macro Assembler    Page 1 


    1 00000000                 AREA             project, CODE, READWRITE
    2 00000000                 ENTRY
    3 00000000         
    4 00000000         Main
    5 00000000 E59FD1E0        LDR              sp, ST      ;set stack pointer 
                                                            address
    6 00000004 E59F01E4        LDR              r0,=Random_data ;address of 100
                                                            0's data
    7 00000008 E59F11E4        LDR              r1,=Search_data ;address of 100
                                                            's data of search
    8 0000000C E59F21E4        LDR              r2,=Array_data ;address of 1000
                                                            's sorted data
    9 00000010 E1A0E00F        MOV              lr, pc      ;lr=pc
   10 00000014 EA00002C        B                QuickSort   ;call QuickSort fun
                                                            ction
   11 00000018         
   12 00000018         ;store the sort array
   13 00000018         StoreArray
   14 00000018 E8AD1FFF        STMEA            sp!, {r0-r12} ;store registers 
                                                            value in stack
   15 0000001C E3A01001        MOV              r1, #1      ;r1=1 for count
   16 00000020         
   17 00000020         StoreLoop                            ;store 1000's sorte
                                                            d data in Array_dat
                                                            a 
   18 00000020 E8B01FF8        LDMFD            r0!, {r3-r12} ;load 10's data t
                                                            o sorted array
   19 00000024 E1A0C80C        MOV              r12, r12, LSL #16 ;combine of t
                                                            wo 4byte data to 4b
                                                            yte size(2+2)
   20 00000028 E08BC00C        ADD              r12, r11, r12
   21 0000002C E1A0A80A        MOV              r10, r10, LSL #16 ;combine of t
                                                            wo 4byte data to 4b
                                                            yte size(2+2)
   22 00000030 E089A00A        ADD              r10, r9, r10
   23 00000034 E1A08808        MOV              r8, r8, LSL #16 ;combine of two
                                                             4byte data to 4byt
                                                            e size(2+2)
   24 00000038 E0878008        ADD              r8, r7, r8
   25 0000003C E1A06806        MOV              r6, r6, LSL #16 ;combine of two
                                                             4byte data to 4byt
                                                            e size(2+2)
   26 00000040 E0856006        ADD              r6, r5, r6
   27 00000044 E1A04804        MOV              r4, r4, LSL #16 ;combine of two
                                                             4byte data to 4byt
                                                            e size(2+2)
   28 00000048 E0834004        ADD              r4, r3, r4
   29 0000004C E8A21550        STMEA            r2!, {r4,r6,r8,r10,r12} ;store 
                                                            combined data in Ar
                                                            ray_data(r2)
   30 00000050         
   31 00000050 E3510064        CMP              r1, #100    ;if r1==100, exit l
                                                            oop
   32 00000054 E2811001        ADD              r1, r1, #1  ;else r1++
   33 00000058 1AFFFFF0        BNE              StoreLoop
   34 0000005C         
   35 0000005C         ;search start
   36 0000005C E93D1FFF        LDMEA            sp!, {r0-r12} ;load previous da
                                                            ta to stack 



ARM Macro Assembler    Page 2 


   37 00000060 E2413004        SUB              r3, r1, #4  ;r3 is last addr
   38 00000064 E3A09001        MOV              r9, #1      ;r9 is count of sea
                                                            rch loop
   39 00000068 E1A0A000        MOV              r10, r0     ;r10 is copy of fir
                                                            st addr
   40 0000006C E59FB178        LDR              r11, Result ;address that store
                                                             success searched d
                                                            ata 
   41 00000070 E8AD0FFF        STMEA            sp!, {r0-r11} ;store current re
                                                            gisters value
   42 00000074 EA000007        B                Bi_SearchMain ;call Binary sera
                                                            ch function
   43 00000078         
   44 00000078         
   45 00000078         SearchSuccess
   46 00000078 E044500A        SUB              r5, r4, r10 ;if find key data, 
                                                            compute index & sto
                                                            re
   47 0000007C E1A05125        MOV              r5, r5, LSR #2
   48 00000080 E0CB50B2        STRH             r5, [r11], #2
   49 00000084 E28CC001        ADD              r12, r12, #1 ;r12 is number of 
                                                            success search data
                                                             , r12++
   50 00000088         
   51 00000088         SearchFail
   52 00000088 E2899001        ADD              r9, r9, #1  ;count++
   53 0000008C E3590065        CMP              r9, #101    ;if count==101, exi
                                                            t function
   54 00000090 193D0009        LDMEANE          sp!, {r0, r3}
   55 00000094 0A000050        BEQ              Exit
   56 00000098         
   57 00000098         Bi_SearchMain
   58 00000098 E4912004        LDR              r2, [r1], #4 ;key of search
   59 0000009C E8AD0009        STMEA            sp!, {r0, r3} ;store r0~r3 in s
                                                            tack
   60 000000A0         
   61 000000A0         Bi_Search
   62 000000A0 E1530000        CMP              r3, r0      ;if last<first , go
                                                             to SearchFail
   63 000000A4 BAFFFFF7        BLT              SearchFail
   64 000000A8         
   65 000000A8 E0804003        ADD              r4, r0, r3  ;midium addr=(first
                                                            +last)/2
   66 000000AC E1A041C4        MOV              r4, r4, ASR #3
   67 000000B0 E1A04104        MOV              r4, r4, LSL #2
   68 000000B4         
   69 000000B4 E5945000        LDR              r5, [r4]    ;r5 is arr[mid]
   70 000000B8 E1520005        CMP              r2, r5      ;compare search dat
                                                            a(key) & arr[mid]
   71 000000BC         
   72 000000BC B2443004        SUBLT            r3, r4, #4  ;if key<arr[mid], l
                                                            ast addr=midium add
                                                            r-4
   73 000000C0 C2840004        ADDGT            r0, r4, #4  ;else if key>arr[mi
                                                            d], first addr=midi
                                                            um addr+4
   74 000000C4 1AFFFFF5        BNE              Bi_Search   ;repeat loop
   75 000000C8 0AFFFFEA        BEQ              SearchSuccess ;else, go to Sear
                                                            chSuccess



ARM Macro Assembler    Page 3 


   76 000000CC         
   77 000000CC         
   78 000000CC         
   79 000000CC         ;start Sort
   80 000000CC         QuickSort
   81 000000CC E8AD5FFF        STMEA            sp!, {r0-r12, lr}
   82 000000D0 E2412004        SUB              r2, r1, #4  ;right = r2
   83 000000D4 E1A01000        MOV              r1, r0      ;left=r1
   84 000000D8 E8AD0006        STMEA            sp!, {r1, r2} ;store r1, r2 in 
                                                            stack
   85 000000DC E59FC118        LDR              r12,=0x3038 ;r12 is address for
                                                             end of function
   86 000000E0 E280B004        ADD              r11, r0, #4 ;r11=left+1
   87 000000E4         
   88 000000E4         QLoop
   89 000000E4 E93D0006        LDMEA            sp!, {r1, r2} ;right & left set
                                                             from stack data
   90 000000E8 E1A0E00F        MOV              lr, pc      ;lr=pc
   91 000000EC EA000009        B                Partition   ;call Partition fun
                                                            ction
   92 000000F0         
   93 000000F0 E1540001        CMP              r4, r1      ;if pivot-1>left
   94 000000F4 C2434004        SUBGT            r4, r3, #4  ;right=pivot-1
   95 000000F8 C8AD0012        STMEAGT          sp!, {r1, r4} ;store left right
                                                            
   96 000000FC         
   97 000000FC E2830004        ADD              r0, r3, #4  ;pivot+1
   98 00000100 E1500002        CMP              r0, r2      ;if pivot+1<right, 
                                                            left=pivot+1
   99 00000104 B8AD0005        STMEALT          sp!, {r0, r2} ;store left & rig
                                                            ht in stack
  100 00000108 BAFFFFF5        BLT              QLoop       ;repeat loop
  101 0000010C         
  102 0000010C         ;else,
  103 0000010C E15D000C        CMP              sp, r12     ;if stack is empty,
                                                             exit
  104 00000110 093D9FFF        LDMEAEQ          sp!, {r0-r12, pc}
  105 00000114 EAFFFFF2        B                QLoop       ;else repeat loop
  106 00000118         
  107 00000118         
  108 00000118         Partition
  109 00000118 E8AD4006        STMEA            sp!, {r1, r2, lr} ;store r1, r2
                                                            , lr in stack
  110 0000011C E5924000        LDR              r4, [r2]    ;r4=pivot
  111 00000120 E2413004        SUB              r3, r1, #4  ;r3=i
  112 00000124 E1A05001        MOV              r5, r1      ;r5=j
  113 00000128         
  114 00000128         PLoop
  115 00000128 E5956000        LDR              r6, [r5]    ;r6=arr[j]
  116 0000012C E1560004        CMP              r6, r4      ;arr[j]<=pivot
  117 00000130 D2833004        ADDLE            r3, r3, #4  ;i++
  118 00000134 D1037096        SWPLE            r7,  r6, [r3] ;swap -> arr[i] ,
                                                             arr[j]
  119 00000138 D5857000        STRLE            r7, [r5]
  120 0000013C E2855004        ADD              r5, r5, #4
  121 00000140 E1550002        CMP              r5, r2      ;j>=max, exit
  122 00000144 AA00001F        BGE              PartitionExit
  123 00000148         
  124 00000148 E5956000        LDR              r6, [r5]    ;r6=arr[j]



ARM Macro Assembler    Page 4 


  125 0000014C E1560004        CMP              r6, r4      ;arr[j]<=pivot
  126 00000150 D2833004        ADDLE            r3, r3, #4  ;i++
  127 00000154 D1037096        SWPLE            r7,  r6, [r3] ;swap -> arr[i] ,
                                                             arr[j]
  128 00000158 D5857000        STRLE            r7, [r5]
  129 0000015C E2855004        ADD              r5, r5, #4
  130 00000160 E1550002        CMP              r5, r2      ;j>=max, exit
  131 00000164 AA000017        BGE              PartitionExit
  132 00000168         
  133 00000168 E5956000        LDR              r6, [r5]    ;r6=arr[j]
  134 0000016C E1560004        CMP              r6, r4      ;arr[j]<=pivot
  135 00000170 D2833004        ADDLE            r3, r3, #4  ;i++
  136 00000174 D1037096        SWPLE            r7,  r6, [r3] ;swap -> arr[i] ,
                                                             arr[j]
  137 00000178 D5857000        STRLE            r7, [r5]
  138 0000017C E2855004        ADD              r5, r5, #4
  139 00000180 E1550002        CMP              r5, r2      ;j>=max, exit
  140 00000184 AA00000F        BGE              PartitionExit
  141 00000188         
  142 00000188 E5956000        LDR              r6, [r5]    ;r6=arr[j]
  143 0000018C E1560004        CMP              r6, r4      ;arr[j]<=pivot
  144 00000190 D2833004        ADDLE            r3, r3, #4  ;i++
  145 00000194 D1037096        SWPLE            r7,  r6, [r3] ;swap -> arr[i] ,
                                                             arr[j]
  146 00000198 D5857000        STRLE            r7, [r5]
  147 0000019C E2855004        ADD              r5, r5, #4
  148 000001A0 E1550002        CMP              r5, r2      ;j>=max, exit
  149 000001A4 AA000007        BGE              PartitionExit
  150 000001A8         
  151 000001A8 E5956000        LDR              r6, [r5]    ;r6=arr[j]
  152 000001AC E1560004        CMP              r6, r4      ;arr[j]<=pivot
  153 000001B0 D2833004        ADDLE            r3, r3, #4  ;i++
  154 000001B4 D1037096        SWPLE            r7,  r6, [r3] ;swap -> arr[i] ,
                                                             arr[j]
  155 000001B8 D5857000        STRLE            r7, [r5]
  156 000001BC E2855004        ADD              r5, r5, #4
  157 000001C0 E1550002        CMP              r5, r2      ;j>=max, exit
  158 000001C4 BAFFFFD7        BLT              PLoop
  159 000001C8         
  160 000001C8         PartitionExit
  161 000001C8 E2833004        ADD              r3, r3, #4  ;swap -> arr[i+1] ,
                                                             pivot
  162 000001CC E1037094        SWP              r7,  r4, [r3]
  163 000001D0 E5827000        STR              r7, [r2]
  164 000001D4 E2434004        SUB              r4, r3, #4
  165 000001D8 E93D8006        LDMEA            sp!, {r1, r2, pc} ;return i+1
  166 000001DC         
  167 000001DC         
  168 000001DC         Exit
  169 000001DC E93D0009        LDMEA            sp!, {r0, r3} ;load r0~r3 
  170 000001E0 E93D0FFF        LDMEA            sp!, {r0-r11} ;load original va
                                                            lue of registers to
                                                             stack
  171 000001E4 E3A0F000        MOV              pc, #0
  172 000001E8         
  173 000001E8 00003000 
                       ST      &                &00003000
  174 000001EC 40000000 
                       Result  &                &40000000



ARM Macro Assembler    Page 5 


  175 000001F0         
  176 000001F0         
  177 000001F0 00000000 
              00000000 
              00000000 
              00003038         AREA             memory, DATA ;Data section
  178 00000000         Random_data
  179 00000000         ;case1
  180 00000000         ;DCD 1190,2819,708,4164,124,1226,4240,2788,1025,1590,251
                       4,4745,262,1352,2087,2478,4817,4760,643,918,112,1952,195
                       1,4685,2014,2845,3824,3975,3603,4301,4545,4237,2790,311,
                       1967,4195,3284,4055,2587,2795,3217,553,866,132,2226,2252
                       ,1723,605,709,133,1796,2230,1108,1359,496,2442,959,2659,
                       1166,247,770,1430,86,704,2535,2825,2946,2299,3567,67,230
                       6,3670,1658,1574,472,2201,4014,3588,901,1110,1334,2093,2
                       266,2616,2303,1677,1680,2225,2494,1583,2428,2409,2531,24
                       59,1109,1177,2722,3097,2393,3148,2096
  181 00000000         ;DCD 3064,1607,1665,188,1616,324,1333,2652,3478,1150,292
                       6,2405,2613,1441,1788,3533,3568,3250,2,2074,1634,326,174
                       0,2860,785,3635,1989,3661,3823,4081,4085,4533,4555,341,1
                       065,2263,2018,1917,927,1533,1719,1776,584,1455,1878,109,
                       3634,3740,2213,1453,1518,3433,2805,49,3133,2369,1151,406
                       1,3309,88,3180,3488,2238,4637,2320,4084,4679,241,490,824
                       ,2032,4259,3880,692,3145,2648,1710,1553,492,1520,290,669
                       ,2728,1814,421,3653,3451,3065,802,2483,1925,879,116,525,
                       1157,2175,3469,4071,4167,1724,2008
  182 00000000         ;DCD 479,1803,4082,4104,1585,194,1156,3320,2354,1007,213
                       6,3181,3995,3169,574,1224,1650,1006,3189,1669,3258,4013,
                       3970,1233,4419,773,510,3608,4725,3720,3645,3520,486,1404
                       ,2013,3082,2703,1529,3459,130,478,3936,3855,2232,1929,21
                       96,2541,2756,4712,4636,3742,4216,1566,4598,1545,179,1384
                       ,1835,2856,2610,2200,666,1873,3620,3826,1114,4325,3287,3
                       817,325,2020,167,4358,4356,1769,151,1390,2603,3015,2433,
                       2883,2726,3987,3863,1819,40,786,4053,3743,3013,427,662,3
                       712,3046,350,1963,2932,2690,1080,2530,5
  183 00000000         ;DCD 2473,1708,544,1283,367,221,1594,655,1794,2555,95,23
                       07,2168,31,1395,2916,3388,1975,2624,2469,729,1053,837,61
                       7,250,1681,1810,2163,1613,2422,3402,3695,3289,2711,1491,
                       1853,1799,128,252,1303,811,988,1055,1982,2321,1265,2057,
                       2671,2699,3366,3646,2808,4060,4275,1106,1473,2129,3303,9
                       85,4491,2358,4292,4500,2231,4508,3118,777,1327,3131,2630
                       ,4621,1117,3750,4091,2276,1636,1019,222,2413,3264,3058,3
                       669,4549,4180,4162,4058,3715,2794,2481,526,2920,3664,466
                       1,2082,3700,4723,3503,4718,865,1525,3738
  184 00000000         ;DCD 2574,1866,43,924,3007,827,2054,1931,1937,946,3909,8
                       16,3412,2814,4192,1064,4054,4039,2918,2361,1291,1988,340
                       0,3385,2237,648,3161,3246,3108,1198,754,1916,295,1256,23
                       77,405,2793,1676,2992,1402,345,2267,2658,2872,3021,2042,
                       883,3617,3840,2338,3926,410,4173,436,3144,4196,3154,1624
                       ,2999,3384,4322,4633,3962,1996,3099,2691,3242,2110,2928,
                       3859,3853,3610,1279,2279,559,902,1815,1860,1498,2672,336
                       8,2408,1901,1319,491,1011,1509,3157,2660,195,1546,2019,2
                       083,3453,3762,4747,4751,4794,499,4795,4207
  185 00000000         ;DCD 4816,35,4862,1943,4864,4868,4882,4884,554,2240,4889
                       ,4890,4891,1383,3365,4309,4905,297,4390,4330,842,2044,24
                       86,2161,4687,1135,3496,4906,593,4847,389,2954,3030,3392,
                       4846,4842,4833,2480,2092,3422,3955,2005,1647,4713,4037,4
                       710,456,1378,4513,4574,823,2452,3633,383,3155,3389,3125,
                       3116,764,1944,1307,533,9,337,2553,2813,1349,2185,2309,18



ARM Macro Assembler    Page 6 


                       65,1871,3098,1142,2336,1097,1009,1463,3586,701,1148,1342
                       ,2774,2797,4087,4110,787,4152,140,4172,3716,4381,4308,21
                       17,4699,4811,501,4736,2046,4700,1790,4107
  186 00000000         ;DCD 4697,3173,2162,1483,4570,2323,2576,2171,1535,1657,2
                       20,677,2513,2050,2345,4559,690,621,2174,2519,4444,503,45
                       32,4517,4511,4467,1178,4331,2730,3070,1909,1200,110,1186
                       ,3667,4193,543,3952,895,3721,3415,446,3107,3178,2664,324
                       8,3530,3348,3267,2771,557,1635,1993,2221,1094,2597,2732,
                       2971,3454,2791,1838,131,38,51,1919,1354,2349,3152,4430,3
                       003,3068,4159,3601,2763,4367,2595,569,1653,1649,1230,144
                       6,171,1449,1597,1922,2913,4364,4327,4270,4242,615,460,40
                       44,3920,3598,1246,2983,3307,1523,3089,2812
  187 00000000         ;DCD 815,1116,1297,647,93,1221,698,1673,1806,1870,1345,9
                       39,880,1500,1897,3383,432,1960,3162,4118,3014,2061,4219,
                       4074,4066,2619,3625,1048,568,3866,3822,888,2429,803,3421
                       ,1745,2933,3136,2280,635,1174,1468,2269,2687,1314,2264,3
                       785,3623,1516,1056,3517,3324,1144,2003,915,2963,1789,127
                       4,1427,2438,820,971,1182,1709,2130,3508,3150,257,1763,14
                       86,469,3605,3967,3787,169,956,3409,2158,2209,3102,87,177
                       4,3528,3028,2837,260,1489,1907,2865,1845,498,1317,772,10
                       5,995,1249,2249,2704,1501,623,122
  188 00000000         ;DCD 1461,2968,3317,2206,3836,340,3570,953,176,400,1935,
                       3851,2222,779,1872,2293,3949,3816,1075,676,1617,1660,223
                       4,914,2265,3810,3971,1401,2561,2922,3347,2339,2166,2073,
                       3291,4099,1290,1362,796,4120,4210,4279,2643,1037,75,4320
                       ,392,2112,4495,2804,4097,4577,56,4590,4591,4627,903,298,
                       4668,4755,3408,3127,2876,1232,1467,2243,3104,1032,685,47
                       73,4838,3390,134,1348,4840,694,2443,598,1014,3688,4858,4
                       659,4175,2414,3372,3482,4038,2908,4911,4914,4915,4917,55
                       8,4498,1381,1595,590,596,2656,1444,4932
  189 00000000         ;DCD 2401,1149,2109,3121,4945,1299,68,401,473,2116,388,1
                       62,493,2214,2738,3091,4953,4959,2650,3574,3113,2681,681,
                       1591,4462,3550,111,3206,3374,3330,263,2751,4277,2436,235
                       2,4967,190,2985,4970,4963,1240,3005,4971,4571,3788,3651,
                       1675,1811,2532,1755,1132,3622,3435,1189,2529,3171,2941,1
                       36,825,2847,2827,857,667,1018,214,899,1029,822,351,789,2
                       533,1880,4979,4394,1849,4544,4316,4996,4861,3002,1868,21
                       02,863,760,1443,476,2844,4826,3514,530,20
  190 00000000         
  191 00000000         ;case2
  192 00000000         ;DCD 4477,507,2709,3716,3870,4435,4146,2833,626,2579,171
                       6,4341,2949,72,431,3041,172,1644,3367,1276,678,805,3479,
                       3793,1996,2555,4324,1799,2899,3336,136,5,4151,1229,6,701
                       ,1305,2089,3111,3594,2124,4055,3052,3710,465,844,2332,26
                       16,223,1367,1900,1961,3078,206,4035,166,1755,3541,2168,4
                       092,3351,2772,256,2659,3299,2645,2317,345,1750,1749,1951
                       ,2100,688,2237,2503,1643,1769,2636,4048,2926,1075,120,50
                       6,1350,645,2180,2201,3268,2539,2339,2826,2287,3210,3257,
                       3749,3795,3213,4260,4493,1895,1877
  193 00000000         ;DCD 2183,571,3666,4368,4103,3628,3494,3350,2842,1849,43
                       ,1395,3304,1781,2561,1876,2042,2162,940,1098,1319,1668,1
                       844,942,1602,450,869,2329,3275,565,2856,1814,2056,1457,1
                       288,658,3347,2391,201,1521,2354,1741,1624,2247,1658,2195
                       ,1718,1867,2118,1899,1654,725,478,370,2135,2891,2665,491
                       ,3688,3753,533,3779,2569,3702,4192,4350,4560,3819,697,24
                       8,1640,3189,3656,4571,2742,3293,4290,1173,4598,4603,4613
                       ,400,4656,4399,1187,2546,2264,3930,3786,209,3735,2532,11
                       59,1201,2621,1139,3358,3459,2838,649,183
  194 00000000         ;DCD 884,1827,883,1434,3221,2604,548,3732,3398,3056,98,7



ARM Macro Assembler    Page 7 


                       67,2814,2331,1713,3578,4059,4310,4383,4666,2369,453,606,
                       4691,4700,4779,670,1994,2059,1254,623,2145,2293,142,1178
                       ,2360,4231,4637,4780,1242,4904,4569,4233,972,4441,4031,3
                       422,643,1620,1114,358,2252,1167,10,479,1403,864,690,0,45
                       8,2356,802,859,773,2053,3484,3573,3378,260,1501,665,2143
                       ,2702,1526,3017,1547,3127,2078,3262,4086,1109,1972,3759,
                       2142,2464,3049,4303,738,4459,4876,4807,4806,4777,3423,50
                       9,2985,3066,3099,768,4754,2176
  195 00000000         ;DCD 2593,4505,3428,577,889,994,1524,1794,2530,747,1047,
                       4276,4592,3319,3425,4512,4229,3621,2955,224,1016,2010,36
                       22,4440,1660,881,178,3474,1965,3813,3527,2910,2270,856,3
                       85,138,1508,1161,155,2034,3317,344,4131,1846,2750,4437,2
                       258,286,4338,4463,3896,3380,26,2548,1396,1936,2893,1825,
                       3004,3447,3481,3965,4376,1165,2254,1680,2371,3084,1202,1
                       464,2482,818,3403,4749,680,3602,4182,524,68,4731,4680,46
                       60,4628,4002,1266,4625,2735,3894,1495,4536,4504,2688,439
                       1,4390,4372,1209,4188,4051,1382,2435,4171
  196 00000000         ;DCD 2557,1633,4118,774,2870,2494,128,1093,1200,486,827,
                       3085,627,1316,2523,4116,4108,512,3157,2980,662,242,2398,
                       993,959,931,351,607,843,2478,4107,3991,1437,564,1300,395
                       ,608,75,729,3238,3450,3201,1531,2513,2387,2364,2300,161,
                       2074,748,925,927,492,1162,1234,2248,2337,3228,3277,2930,
                       3246,207,2324,1361,875,263,841,2698,3301,3608,3798,3908,
                       3407,3910,4114,1240,3679,4122,4339,1737,2627,4370,4266,9
                       99,1443,2432,4344,4201,2770,3444,3720,3703,80,3653,3372,
                       692,3532,3071,663,2681,2130
  197 00000000         ;DCD 583,979,1392,876,1630,1910,503,2374,1783,796,901,31
                       77,3812,1685,578,435,2708,1377,3733,1793,1939,4176,1107,
                       1455,292,3418,1077,4227,4117,4302,3887,77,3840,1002,1053
                       ,3416,3873,1155,1224,2315,4179,2739,2968,4052,3363,2511,
                       48,246,64,587,539,37,2018,2793,488,1219,1883,1785,2301,2
                       239,2929,471,2588,3387,2244,1249,2754,1916,2425,3560,362
                       0,1247,906,28,605,2379,1671,969,1149,271,1156,1323,1730,
                       3164,2990,3544,781,3668,3883,3833,3766,3637,114,3267,105
                       5,222,1850,2696,2603,1892,2146
  198 00000000         ;DCD 412,1859,2860,2999,3204,3561,46,1638,285,2656,917,1
                       183,3026,1903,2547,4191,2653,3514,2113,2959,780,1197,285
                       7,2815,1535,1401,321,474,1753,3457,3638,1606,1425,3682,3
                       715,3914,1204,2343,1017,2334,24,365,3575,352,4219,176,40
                       09,4305,2385,188,4264,3888,4353,4392,2323,4433,4239,4442
                       ,4633,944,4438,1817,2408,2578,1117,910,3261,1045,980,419
                       ,295,3,898,1467,2095,2789,3590,4501,2620,2290,1514,1745,
                       1968,2560,1079,2402,2389,705,1651,1483,2203,221,746,3504
                       ,2795,2869,2944,523,786,1960,2276
  199 00000000         ;DCD 2498,617,3171,708,3548,3533,3736,3769,3173,4455,154
                       3,4511,4665,2210,2835,4671,1326,2197,2883,1130,543,820,4
                       348,4686,4740,4757,2726,3854,463,4769,790,4784,2212,2691
                       ,92,2562,4365,3963,112,1588,1864,2133,4574,4307,1206,684
                       ,1347,2818,3093,2093,1575,1915,3339,2309,3572,3857,4240,
                       3624,4178,1822,2685,3329,2775,1631,327,1707,1706,704,193
                       8,2605,4032,493,4793,4802,4842,4844,4848,487,2150,4879,4
                       889,4271,1082,3158,2314,4903,4473,2289,2803,4906,4933,21
                       02,1809,2972,1210,4934,4936,4942,111,2694,1525
  200 00000000         ;DCD 1584,30,231,4223,4174,4947,187,4950,4951,1536,2129,
                       4952,4957,2947,4968,2007,3437,354,1146,59,4973,4978,4986
                       ,4976,4988,3665,1320,1294,990,1701,1752,2223,4990,4556,4
                       999,4975,4912,2099,2504,508,1076,1898,1756,1227,2952,420
                       4,226,4878,19,4823,4710,3453,2268,2956,1906,1504,407,183
                       8,126,1659,603,1746,2423,3777,2205,1711,4163,4209,4736,4



ARM Macro Assembler    Page 8 


                       640,2187,1512,950,2368,261,4423,4594,4503,1096,1880,428,
                       1030,2492,3150,2566,1672,2545,3986,3233,1371,1670,3529,4
                       462,946,356,3259,2297,267,1650,1980,2663
  201 00000000         ;DCD 2072,1901,4216,3961,2508,2449,1914,1621,1830,2416,8
                       12,1091,2714,1944,3251,2157,1527,1196,3704,2572,865,918,
                       745,1364,96,1767,2807,3952,3341,1160,2241,3980,2140,4309
                       ,1345,3128,4325,4336,1244,3763,3721,3895,1287,3197,878,1
                       289,3019,4479,4597,2927,3308,4599,4573,3415,2281,2877,14
                       86,619,1656,2725,1029,1399,2608,2586,538,2525,2716,2173,
                       600,1500,1374,1710,4515,4690,4885,534,2068,4526,930,3420
                       ,1925,957,4944,4987,3151,404,2444,3338,425,2481,2422
  202 00000000         
  203 00000000         ;case3
  204 00000000         ;DCD 4635,2591,3644,538,1101,93,3672,4939,2895,742,795,6
                       58,437,2154,686,2115,1066,3564,1647,1605,1353,144,3838,4
                       893,3620,4221,4842,2178,698,2338,4236,3754,3870,982,4935
                       ,1589,326,2930,1029,2225,1617,3594,78,525,1756,981,1165,
                       4763,4743,4280,3931,775,2931,697,1400,1421,3351,4531,430
                       2,2786,980,814,2321,1697,2601,2180,4553,1091,1362,2478,3
                       461,4816,3492,1869,2460,3635,171,1129,1690,1299,804,4908
                       ,2735,63,65,2801,3982,4020,979,2243,4409,4297,4624,4919,
                       2395,944,3344,1420,1198,1374,3043
  205 00000000         ;DCD 2705,1078,3389,2013,1864,4798,3095,3540,1787,770,42
                       39,3660,1204,2010,4181,3425,2386,4396,1079,3247,2112,427
                       2,2251,854,2482,2487,4774,4965,3421,2189,2256,1726,2816,
                       373,4072,2635,4203,4233,2970,4625,1650,1015,4274,3270,12
                       39,2776,584,2888,3900,2516,748,4861,1570,2661,4271,2268,
                       906,3453,4370,3820,3217,737,210,1268,3697,2731,3580,2739
                       ,1454,346,4742,2329,2278,53,223,3317,2253,1064,3519,3192
                       ,4847,4853,1490,1154,591,4150,80,4587,1968,578,649,1333,
                       1018,2719,1504,2016,1752,1816,3253,3638
  206 00000000         ;DCD 847,1327,4401,2217,1139,4450,1329,3291,821,3397,218
                       ,4132,56,2223,85,1703,3271,2356,3182,2098,1812,666,1134,
                       280,4886,769,3266,588,3299,2034,2228,2655,1782,3342,2684
                       ,3282,1515,2890,794,1544,3315,638,3770,2501,3549,1352,45
                       46,2064,3792,3781,2304,2323,949,761,963,15,4565,762,3398
                       ,3029,1643,1005,3118,4490,1635,344,2247,3970,1416,474,20
                       57,4268,3666,1205,1612,4713,1959,4128,86,3560,1482,846,4
                       643,4509,2298,209,1380,1696,1262,957,4880,4761,4980,153,
                       3980,1336,2362,2026,4584,2619
  207 00000000         ;DCD 2315,4439,3596,676,3308,4824,2562,3823,1320,1093,16
                       79,880,4061,2667,41,3950,4757,2167,245,380,1676,90,4425,
                       1953,4755,1779,936,1837,3683,2428,1116,1733,1794,2559,36
                       47,2840,4421,4705,3066,3218,2055,3062,978,1865,3289,1485
                       ,2855,391,2811,4269,4263,1536,2721,1160,987,2020,841,443
                       1,208,4599,3116,4558,1049,1183,2716,994,3411,1989,3469,3
                       048,2273,264,4702,2472,1281,3695,2258,3641,4046,4293,124
                       2,4190,4127,3401,3501,826,504,4135,1443,4961,2736,2465,3
                       606,1023,4931,4090,123,2172,3881,3373
  208 00000000         ;DCD 79,4216,4775,3281,4725,2195,3860,1567,2224,2542,483
                       2,2947,1435,590,305,832,4065,4633,3752,3384,3855,248,183
                       5,718,3107,382,191,3525,4258,4726,376,2796,4324,3075,256
                       7,901,3634,4567,4613,4131,2458,3390,4700,3396,2832,4513,
                       763,1993,1997,148,4779,984,3723,2353,1646,4116,3369,1636
                       ,1472,1392,259,1728,317,4246,2085,3951,4813,249,1739,395
                       2,2335,3917,3921,73,2099,1347,2070,3702,29,361,4591,2032
                       ,959,2337,3745,2785,1542,1296,147,612,3686,1868,678,3498
                       ,2498,1019,4244,1934,3565,3901
  209 00000000         ;DCD 4351,3943,4173,3132,3077,2924,265,1912,1100,4785,32



ARM Macro Assembler    Page 9 


                       40,4887,1341,805,1575,1781,1698,1417,2549,4184,1108,3865
                       ,98,3051,4577,3618,1085,4503,564,4048,4916,3455,2625,195
                       2,3561,2648,440,900,2023,2688,2436,480,2325,1185,1714,21
                       50,2399,2782,2856,1638,1086,21,4334,1725,3885,3756,3505,
                       1772,1783,2171,289,435,2096,3793,3802,2306,1174,2976,258
                       8,1527,3090,939,1491,379,274,4220,2366,2742,4354,4972,21
                       25,2679,4629,1539,1503,2913,4404,1348,1115,4499,35,3436,
                       4957,2874,1280,1231,1376,2859,2047,3381
  210 00000000         ;DCD 782,4230,972,1322,4219,1785,244,4762,1817,4932,1081
                       ,50,4294,145,1571,4163,196,3162,976,229,2897,81,3324,443
                       0,4345,3622,535,3845,1620,1849,4571,2039,3306,2077,3058,
                       4226,1224,2480,931,716,370,4011,462,3667,3101,2001,353,4
                       21,4500,3530,4991,4191,1561,2696,4433,1634,43,2250,3871,
                       2701,4747,534,3229,2168,4710,707,3232,4288,4383,911,644,
                       2720,1379,2061,141,1241,721,4818,2943,483,3962,554,4316,
                       3274,1213,4363,2316,838,1580,912,1579,3358,2512,2505,103
                       5,3161,961,1601,3407,5
  211 00000000         ;DCD 1273,1951,4852,1051,3301,2581,3495,4778,1623,1682,2
                       554,2087,3700,1775,3598,4644,2068,2177,190,4559,3408,180
                       5,629,3648,2358,4157,3201,3300,2555,920,2942,4391,4527,2
                       059,1179,3890,1468,4344,863,4614,4126,1449,3719,2272,391
                       9,1036,4494,4307,3534,3183,2666,1829,4000,1685,1263,431,
                       973,2235,3328,1150,2621,4784,240,3086,4287,746,3993,1483
                       ,710,4154,2910,3512,1456,4110,1489,1393,3759,4440,2766,4
                       10,2137,1267,768,2340,989,1184,4329,773,3522,1256,3035,1
                       427,2669,594,3392,4850,2529,960,1543,4415
  212 00000000         ;DCD 2427,261,134,359,113,620,2534,2923,1361,402,2608,41
                       07,4487,3628,3924,1000,1760,3333,4526,887,2517,3009,4266
                       ,2234,2345,1269,3377,463,157,2640,299,1699,2287,1546,305
                       0,2434,3850,3939,2394,461,1875,4828,3135,4480,3146,3803,
                       4782,682,3977,495,54,3760,2159,3736,3478,496,1585,2441,2
                       773,1260,254,2126,3585,680,1137,2110,1908,1850,4549,993,
                       739,1469,1477,3473,4984,2407,2759,2612,3323,2768,1839,20
                       02,3250,3215,32,1325,354,1310,3893,1098,1735,2853,2129,8
                       35,545,47,4003,237,2552,1343
  213 00000000         ;DCD 2614,4974,1763,3475,1887,2417,2831,4139,1126,816,48
                       62,1238,2670,3779,1917,3960,424,2038,998,4719,4254,3588,
                       915,4042,197,482,2442,4386,3626,3670,4,2748,2847,1963,17
                       69,1458,4436,2607,1114,3511,1024,4819,1424,467,393,2905,
                       2103,2451,3395,4843,107,1452,3602,3597,2360,360,2737,290
                       9,3730,4056,4582,2613,1279,308,2775,2681,4006,3840,220,1
                       145,156,121,3248,4848,3794,971,2851,728,3542,2419,3017,1
                       583,1291,720,2790,3483,639,2952,1909,33,3083,3761,2334,3
                       740,357,3297,1034,3071,611
  214 00000000         
  215 00000000         ;case4
  216 00000000 00000891 
              000007DA 
              0000099F 
              000003A6 
              00001352 
              00001330 
              000009DB 
              00000FF2 
              00000D2F 
              00000DCF 
              00000CF4 
              00000B7A 
              000001D2 



ARM Macro Assembler    Page 10 


              00000E78 
              00000E28 
              00000250 
              00000D2C 
              00000C4A 
              0000019C 
              0000101B 
              00000847 
              000002B3 
              00000208 
              00000938 
              0000106E 
              00000802 
              00000008 
              00001331 
              0000024B 
              00000C53 
              00000920 
              00000325 
              00001317 
              00000292 
              000000A1 
              00000EE9 
              000001C7 
              00000DBB 
              00000AA1 
              000008C4 
              00000DB4 
              00000099 
              0000060F 
              00000069 
              00000FD3 
              0000025E 
              00000407 
              00000CC8 
              000008E7 
              000011BB 
              00000703 
              00000DA6 
              0000042C 
              000007A8 
              000010D3 
              00000867 
              00000D16 
              00000A9E 
              00000ACD 
              000006B1 
              00000461 
              0000089B 
              00000093 
              000010AA 
              00000156 
              000005CF 
              0000025D 
              00000835 
              000002FB 
              000009D2 
              00000672 
              000009D8 



ARM Macro Assembler    Page 11 


              00000269 
              000006B8 
              000010AB 
              00000828 
              000006E2 
              00000532 
              000005BE 
              00000A23 
              000001FB 
              000007BA 
              000004AF 
              000007AE 
              00000865 
              00001313 
              000003ED 
              00001090 
              0000010C 
              0000055D 
              00000191 
              000008AE 
              000003AE 
              00000A98 
              00000152 
              00000820 
              00000F9D 
              000009D9 
              00000D9C 
              000005F4         DCD              2193,2010,2463,934,4946,4912,25
23,4082,3375,3535,3316,2938,466,3704,3624,592,3372,3146,412,4123,2119,691,520,2
360,4206,2050,8,4913,587,3155,2336,805,4887,658,161,3817,455,3515,2721,2244,350
8,153,1551,105,4051,606,1031,3272,2279,4539,1795,3494,1068,1960,4307,2151,3350,
2718,2765,1713,1121,2203,147,4266,342,1487,605,2101,763,2514,1650,2520,617,1720
,4267,2088,1762,1330,1470,2595,507,1978,1199,1966,2149,4883,1005,4240,268,1373,
401,2222,942,2712,338,2080,3997,2521,3484,1524
  217 00000190 00000870 
              000009CB 
              0000016A 
              0000113A 
              0000002F 
              00000248 
              000008DA 
              000008C8 
              0000118E 
              00000721 
              000005B9 
              000005F6 
              00000824 
              00000851 
              0000099E 
              00000B34 
              0000011C 
              00000F40 
              000001C3 
              00000ECB 
              00000EB3 
              00000FDF 
              00000009 
              00000422 
              0000063B 



ARM Macro Assembler    Page 12 


              000003D0 
              00000BE3 
              000005FA 
              00000BA8 
              000006D8 
              000002CE 
              000003C4 
              000000FA 
              000010EF 
              0000025F 
              00000B71 
              00000E62 
              0000004F 
              000007E5 
              00000F7A 
              000010E0 
              00000C03 
              00000131 
              0000040A 
              00000A5C 
              00000122 
              00000BEC 
              00000980 
              00001233 
              000002EC 
              00000498 
              000010B9 
              00000954 
              000005C4 
              000011E1 
              00000A45 
              00000FD4 
              00000AAE 
              0000073D 
              00000021 
              0000134F 
              00000904 
              00000AFA 
              00000AA6 
              00000308 
              00000F74 
              000010CE 
              000001FF 
              0000122B 
              000011C4 
              000005B5 
              00000AF0 
              00000CC1 
              00000F38 
              00000C37 
              000006DD 
              000000B4 
              0000098B 
              000005E8 
              00001119 
              00000D8B 
              0000075C 
              00000DEC 
              00000CE1 



ARM Macro Assembler    Page 13 


              000003D7 
              00000463 
              000007CA 
              000009E8 
              000009A7 
              000003A5 
              00000038 
              0000107C 
              00000E7A 
              000007A4 
              00001228 
              00000798 
              00000C94 
              00000032 
              00000129 
              0000040B         DCD              2160,2507,362,4410,47,584,2266,
2248,4494,1825,1465,1526,2084,2129,2462,2868,284,3904,451,3787,3763,4063,9,1058
,1595,976,3043,1530,2984,1752,718,964,250,4335,607,2929,3682,79,2021,3962,4320,
3075,305,1034,2652,290,3052,2432,4659,748,1176,4281,2388,1476,4577,2629,4052,27
34,1853,33,4943,2308,2810,2726,776,3956,4302,511,4651,4548,1461,2800,3265,3896,
3127,1757,180,2443,1512,4377,3467,1884,3564,3297,983,1123,1994,2536,2471,933,56
,4220,3706,1956,4648,1944,3220,50,297,1035
  218 00000320 000004B2 
              00000987 
              00000B51 
              00000871 
              00000189 
              00000981 
              0000012A 
              00000529 
              00000CDB 
              00000E5C 
              00000BBA 
              000000FF 
              000000F4 
              000005E3 
              0000133F 
              000010E3 
              0000029C 
              00000B6D 
              0000009B 
              000007B9 
              000009D6 
              00000B1B 
              000011D5 
              0000087A 
              00000A80 
              00000580 
              0000084B 
              00001004 
              00000912 
              0000063F 
              00000C3D 
              000006A7 
              00000949 
              00000371 
              00000AB5 
              000000C7 
              000006F6 



ARM Macro Assembler    Page 14 


              0000075A 
              00000CBD 
              000002DB 
              000005CE 
              0000133A 
              00000AC2 
              000006BD 
              000012DF 
              0000119A 
              00000257 
              000005F3 
              00000324 
              00000692 
              0000011F 
              000004C8 
              0000049D 
              000001AB 
              00001123 
              00000FE0 
              00000171 
              000012C4 
              000005A9 
              0000075D 
              0000053A 
              00000C5A 
              00000CCE 
              0000055C 
              00000E65 
              00000856 
              00000620 
              00000E30 
              00000BF2 
              00000309 
              00000DC1 
              0000052A 
              00000267 
              00000578 
              00000D8C 
              00000DB5 
              00000A74 
              00001268 
              00000D86 
              00000501 
              00001162 
              0000082D 
              00000CE4 
              00000AF9 
              00000148 
              000007E0 
              0000078E 
              00000CB2 
              000005C7 
              000006AE 
              00000CD3 
              00000E82 
              00000FBE 
              00000886 
              0000057A 
              00000CCA 



ARM Macro Assembler    Page 15 


              0000087C 
              000010A1 
              00000F14 
              0000024E         DCD              1202,2439,2897,2161,393,2433,29
8,1321,3291,3676,3002,255,244,1507,4927,4323,668,2925,155,1977,2518,2843,4565,2
170,2688,1408,2123,4100,2322,1599,3133,1703,2377,881,2741,199,1782,1882,3261,73
1,1486,4922,2754,1725,4831,4506,599,1523,804,1682,287,1224,1181,427,4387,4064,3
69,4804,1449,1885,1338,3162,3278,1372,3685,2134,1568,3632,3058,777,3521,1322,61
5,1400,3468,3509,2676,4712,3462,1281,4450,2093,3300,2809,328,2016,1934,3250,147
9,1710,3283,3714,4030,2182,1402,3274,2172,4257,3860,590
  219 000004B0 000010D7 
              00000F33 
              000002C7 
              00000A76 
              000009BD 
              00000F46 
              000003C0 
              00001348 
              00001011 
              00000DEA 
              0000108A 
              000003B6 
              00000E1B 
              0000088A 
              0000021F 
              00001364 
              00000CA9 
              00000B4C 
              00000F66 
              0000055F 
              000012B8 
              00000BAF 
              00000A43 
              00000A6B 
              00000EA4 
              0000050A 
              00000053 
              00000040 
              00000298 
              00001337 
              00000D8A 
              000011F9 
              000008D7 
              00000634 
              0000086F 
              0000093F 
              0000093A 
              0000068E 
              0000068A 
              000002C6 
              00000A5A 
              0000039E 
              00000564 
              00000735 
              000006C1 
              00000C28 
              000000DC 
              000004F4 
              00000D32 



ARM Macro Assembler    Page 16 


              00001131 
              00000B01 
              0000028C 
              00000B13 
              00001005 
              00000A3C 
              00000606 
              00001088 
              000003F4 
              000003C7 
              0000001C 
              000004B9 
              00000B83 
              00000D0E 
              00000447 
              00000A8B 
              00000BF0 
              00000DFD 
              0000003D 
              00000D62 
              00001137 
              000010FA 
              000005F7 
              00000948 
              0000049B 
              000003DD 
              00000B3C 
              00000385 
              000009E5 
              00001382 
              00000DB0 
              000011C9 
              000007A6 
              000011EE 
              000002DF 
              00000EA6 
              0000082B 
              00001000 
              00000F85 
              00000118 
              000007D4 
              00000C8D 
              00000551 
              00000FED 
              00000F3E 
              00001199 
              00000258 
              0000002E 
              00000F30 
              00000FCE 
              00000BB6         DCD              4311,3891,711,2678,2493,3910,96
0,4936,4113,3562,4234,950,3611,2186,543,4964,3241,2892,3942,1375,4792,2991,2627
,2667,3748,1290,83,64,664,4919,3466,4601,2263,1588,2159,2367,2362,1678,1674,710
,2650,926,1380,1845,1729,3112,220,1268,3378,4401,2817,652,2835,4101,2620,1542,4
232,1012,967,28,1209,2947,3342,1095,2699,3056,3581,61,3426,4407,4346,1527,2376,
1179,989,2876,901,2533,4994,3504,4553,1958,4590,735,3750,2091,4096,3973,280,200
4,3213,1361,4077,3902,4505,600,46,3888,4046,2998
  220 00000640 0000048D 
              000007CC 



ARM Macro Assembler    Page 17 


              0000017F 
              00000230 
              0000072B 
              00000E9A 
              00000764 
              00000552 
              00001158 
              00000236 
              00001270 
              00000085 
              0000125D 
              00000B06 
              000005FD 
              000009E3 
              00000E64 
              00000F3A 
              000009DE 
              00000AA7 
              0000056D 
              00000BCA 
              000009B9 
              000011C1 
              00000C5B 
              00000E09 
              00000BC0 
              00000338 
              00000C7A 
              000002B2 
              00000769 
              000007CB 
              000008E9 
              00000143 
              00000C67 
              00000054 
              00000733 
              000003A8 
              0000030B 
              00000F27 
              00000CAC 
              00000373 
              00000DF1 
              00001172 
              00000974 
              000002F7 
              00000F35 
              000001D7 
              000008D5 
              00000FDB 
              00000A7C 
              00000DF5 
              000000C0 
              000008E6 
              00000E6B 
              0000020C 
              000001E3 
              00000DC9 
              00000922 
              0000000A 
              000007BE 



ARM Macro Assembler    Page 18 


              000000ED 
              00000E72 
              0000119B 
              00000B50 
              00000AD6 
              00000B47 
              000011A6 
              000007DE 
              0000086B 
              00000A91 
              0000127C 
              000011D3 
              000001DC 
              000000A8 
              000010EA 
              00000A60 
              000006D7 
              00000CC6 
              000010F8 
              00000878 
              00001102 
              000007B1 
              00000B32 
              0000061C 
              00000174 
              00000F15 
              00000D09 
              00000BE5 
              00000A37 
              00000CD8 
              00000A63 
              00000C3A 
              00000905 
              00000A12 
              00000E54 
              0000030F 
              00000818 
              00000784 
              00000A65         DCD              1165,1996,383,560,1835,3738,189
2,1362,4440,566,4720,133,4701,2822,1533,2531,3684,3898,2526,2727,1389,3018,2489
,4545,3163,3593,3008,824,3194,690,1897,1995,2281,323,3175,84,1843,936,779,3879,
3244,883,3569,4466,2420,759,3893,471,2261,4059,2684,3573,192,2278,3691,524,483,
3529,2338,10,1982,237,3698,4507,2896,2774,2887,4518,2014,2155,2705,4732,4563,47
6,168,4330,2656,1751,3270,4344,2168,4354,1969,2866,1564,372,3861,3337,3045,2615
,3288,2659,3130,2309,2578,3668,783,2072,1924,2661
  221 000007D0 000011CB 
              0000018D 
              00001213 
              00000E48 
              00000006 
              00000201 
              00001153 
              000007C9 
              00000C4C 
              00000EFD 
              00000EE7 
              00000869 
              00000AF4 
              00000196 



ARM Macro Assembler    Page 19 


              00000F7C 
              00000456 
              00000B76 
              0000062B 
              000009D4 
              00000454 
              00000E9B 
              00000026 
              00000919 
              0000009C 
              00000CDD 
              00000D67 
              000012AF 
              00000275 
              000012B0 
              000008E1 
              00000C21 
              00000125 
              00000D3B 
              000005C1 
              0000008B 
              000002A6 
              00000CF1 
              0000092F 
              00000639 
              0000126F 
              000009C2 
              00000EC3 
              0000023B 
              000002BF 
              000000D6 
              0000076F 
              00000195 
              00000D02 
              00000CF8 
              00000023 
              000009C3 
              0000083E 
              000012AA 
              0000045B 
              0000042A 
              00000988 
              00000EFB 
              0000127D 
              00000FC4 
              00000819 
              00000931 
              00001019 
              000007E1 
              00000A6C 
              00000080 
              00000BF4 
              00000124 
              00000CBB 
              000005F0 
              000009FB 
              000006C0 
              0000080A 
              000010F7 



ARM Macro Assembler    Page 20 


              000012D9 
              00000A35 
              00000388 
              00000EF8 
              00001275 
              00000B1E 
              000004BC 
              0000026D 
              0000065E 
              00001264 
              00001124 
              00000E6D 
              00000B24 
              00000B45 
              00000B7E 
              000000AA 
              00000995 
              000003D9 
              00000C5F 
              0000047F 
              00000657 
              00000E39 
              00000EBD 
              00000557 
              000011F6 
              00000AC0 
              000002B8         DCD              4555,397,4627,3656,6,513,4435,1
993,3148,3837,3815,2153,2804,406,3964,1110,2934,1579,2516,1108,3739,38,2329,156
,3293,3431,4783,629,4784,2273,3105,293,3387,1473,139,678,3313,2351,1593,4719,24
98,3779,571,703,214,1903,405,3330,3320,35,2499,2110,4778,1115,1066,2440,3835,47
33,4036,2073,2353,4121,2017,2668,128,3060,292,3259,1520,2555,1728,2058,4343,482
5,2613,904,3832,4725,2846,1212,621,1630,4708,4388,3693,2852,2885,2942,170,2453,
985,3167,1151,1623,3641,3773,1367,4598,2752,696
  222 00000960 00001142 
              000010F9 
              00000315 
              0000123F 
              00001221 
              000007AB 
              0000056A 
              0000042D 
              00000A5D 
              0000063E 
              000001EA 
              00000C7C 
              00000E37 
              00000241 
              00000448 
              00000779 
              0000030A 
              000011A7 
              00000826 
              00000F73 
              000002EB 
              000000A9 
              0000071D 
              00000CFF 
              0000000C 
              00000E3A 



ARM Macro Assembler    Page 21 


              0000051B 
              00000B9B 
              00000C50 
              00000AEF 
              0000018A 
              000002F5 
              00000FE2 
              00000598 
              0000113F 
              00001340 
              000008AA 
              0000099C 
              00000214 
              00001118 
              000008A8 
              00000306 
              000004A7 
              0000085F 
              00000EE4 
              00000A86 
              00001318 
              00000AE5 
              00000310 
              00000A5F 
              00000B60 
              00000685 
              0000122A 
              00001246 
              00001197 
              00001300 
              000002FE 
              000003DC 
              00001188 
              0000010F 
              00000BED 
              00000E9D 
              0000110B 
              0000103B 
              0000127F 
              000000AF 
              000002FF 
              00000A62 
              00000128 
              00000E7C 
              00000028 
              0000052B 
              00000339 
              0000083B 
              000009FD 
              00000380 
              00000D46 
              00000F2E 
              0000005C 
              0000020B 
              00000B11 
              00000BA1 
              00000D6F 
              00001186 
              0000009F 



ARM Macro Assembler    Page 22 


              0000019F 
              00001269 
              00000745 
              00000C18 
              000003F0 
              00000548 
              0000131B 
              0000064C 
              00000211 
              000004DD 
              00000D6C 
              0000006A 
              000002D8 
              00001196 
              00000FD5 
              000012A9         DCD              4418,4345,789,4671,4641,1963,13
86,1069,2653,1598,490,3196,3639,577,1096,1913,778,4519,2086,3955,747,169,1821,3
327,12,3642,1307,2971,3152,2799,394,757,4066,1432,4415,4928,2218,2460,532,4376,
2216,774,1191,2143,3812,2694,4888,2789,784,2655,2912,1669,4650,4678,4503,4864,7
66,988,4488,271,3053,3741,4363,4155,4735,175,767,2658,296,3708,40,1323,825,2107
,2557,896,3398,3886,92,523,2833,2977,3439,4486,159,415,4713,1861,3096,1008,1352
,4891,1612,529,1245,3436,106,728,4502,4053,4777
  223 00000AF4 0000120F 
              00001126 
              00001178 
              00000F39 
              0000013B 
              0000113D 
              00000B22 
              00000ACC 
              00000C51 
              00000B3A 
              00000176 
              00000775 
              00000CC4 
              00000064 
              00000C22 
              00000DAD 
              000011BD 
              00001014 
              00001361 
              00000C88 
              0000123B 
              00000180 
              000012F9 
              000012DE 
              00000A2C 
              00000ADD 
              00000812 
              00000B21 
              000002D0 
              000001ED 
              000002C1 
              00000670 
              00000D03 
              00000F54 
              00000C0E 
              0000091E 
              00000C79 



ARM Macro Assembler    Page 23 


              00001203 
              00000364 
              00000D94 
              000012BA 
              00000B15 
              0000092A 
              0000129C 
              0000017B 
              00000543 
              00000ACE 
              000012C3 
              00000278 
              00000BC8 
              000006B2 
              00000352 
              0000096F 
              00000985 
              00000DBF 
              0000115D 
              000004E4 
              00000277 
              00001308 
              00000D83 
              0000101D 
              00000743 
              00000849 
              00000072 
              000004D3 
              00000071 
              000010E4 
              000000E0 
              00000AB6 
              0000086A 
              00000FA2 
              00000A22 
              00000D71 
              00000959 
              000010BA 
              000006C6 
              00000BC1 
              000011E5 
              000000FB 
              00000EA1 
              00000392 
              00000CE6 
              0000132D 
              00000979 
              00000446 
              00000426 
              0000107F 
              0000001B 
              00000785 
              00001255 
              000005F1 
              0000023E 
              00000A3B 
              00000424 
              00000DA9 
              000002F9 



ARM Macro Assembler    Page 24 


              000008F6 
              000007D5 
              00000B04 
              0000094D         DCD              4623,4390,4472,3897,315,4413,28
50,2764,3153,2874,374,1909,3268,100,3106,3501,4541,4116,4961,3208,4667,384,4857
,4830,2604,2781,2066,2849,720,493,705,1648,3331,3924,3086,2334,3193,4611,868,34
76,4794,2837,2346,4764,379,1347,2766,4803,632,3016,1714,850,2415,2437,3519,4445
,1252,631,4872,3459,4125,1859,2121,114,1235,113,4324,224,2742,2154,4002,2594,34
41,2393,4282,1734,3009,4581,251,3745,914,3302,4909,2425,1094,1062,4223,27,1925,
4693,1521,574,2619,1060,3497,761,2294,2005,2820,2381
  224 00000C84 00000345 
              000005D4 
              00000048 
              00001129 
              0000103D 
              0000081B 
              00000C46 
              00001278 
              00000C8A 
              00000159 
              0000058B 
              00001309 
              00000C64 
              00000CE2 
              0000085D 
              00001204 
              0000079B 
              0000094E 
              00000FE3 
              00000791 
              00000A1F 
              000004F1 
              0000115B 
              0000100D 
              00000C40 
              0000062C 
              00000F19 
              000000C5 
              00000A69 
              00000C66 
              000004C5 
              00001217 
              000001DD 
              00000F5A 
              00000402 
              000012B1 
              00000C54 
              0000114F 
              00000239 
              0000065B 
              00000618 
              000010FD 
              00000FCA 
              00000787 
              000004CA 
              00000EB9 
              000004D5 
              00000FE7 
              00000982 



ARM Macro Assembler    Page 25 


              00000FF5 
              000002C0 
              0000084C 
              0000057F 
              00000466 
              00000CF0 
              00000746 
              00001143 
              00000D89 
              0000004C 
              00001028 
              000003C6 
              000008ED 
              0000079F 
              00000D84 
              000011E0 
              00000E93 
              000000EC 
              000004B4 
              00000CE0 
              000010AD 
              000012C0 
              00000740 
              00000DAB 
              000009AD 
              0000015D 
              00000E13 
              00001243 
              00000EAF 
              00000C82 
              000004A9 
              000011B8 
              00000B7B 
              000006FC 
              00000F1C 
              0000077E 
              00001007 
              00000CEC 
              00000910 
              00000882 
              00000F43 
              000005D7 
              0000136A 
              0000055B 
              000000BA 
              0000067B 
              00000FCF 
              000008A4 
              0000109C 
              00000079 
              000003F7         DCD              837,1492,72,4393,4157,2075,3142
,4728,3210,345,1419,4873,3172,3298,2141,4612,1947,2382,4067,1937,2591,1265,4443
,4109,3136,1580,3865,197,2665,3174,1221,4631,477,3930,1026,4785,3156,4431,569,1
627,1560,4349,4042,1927,1226,3769,1237,4071,2434,4085,704,2124,1407,1126,3312,1
862,4419,3465,76,4136,966,2285,1951,3460,4576,3731,236,1204,3296,4269,4800,1856
,3499,2477,349,3603,4675,3759,3202,1193,4536,2939,1788,3868,1918,4103,3308,2320
,2178,3907,1495,4970,1371,186,1659,4047,2212,4252,121,1015
  225 00000E14 00000B3E 
              000009B2 



ARM Macro Assembler    Page 26 


              000000D1 
              00000043 
              0000041E 
              0000015F 
              00000D7C 
              00000037 
              0000062A 
              00000AEE 
              0000057B 
              00000362 
              00000DB6 
              000000E2 
              0000109D 
              00000773 
              0000047B 
              000006ED 
              0000135A 
              000000BF 
              000001DE 
              00000244 
              00000CD0 
              000001F0 
              000007A9 
              000000A0 
              00000CD4 
              0000054B 
              00001112 
              000011CD 
              00000602 
              000003D2 
              000004A3 
              000000B0 
              00000DCC 
              00000460 
              00001273 
              000007EB 
              00000717 
              00000D1F 
              00000C70 
              0000076C 
              00000C62 
              0000034A 
              000011BF 
              00001335 
              00000571 
              0000049F 
              0000101A 
              0000133C 
              00000B2F 
              00000A6A 
              00000CD7 
              00000718 
              00000218 
              00000793 
              00000C6C 
              000007E9 
              000009D1 
              000009E6 
              0000024D 



ARM Macro Assembler    Page 27 


              0000098D 
              00000732 
              00000908 
              00000E5B 
              00000A4E 
              00001354 
              00000C00 
              00001077 
              000012F7 
              00000D92 
              0000123C 
              00000E32 
              00000172 
              0000097C 
              00001277 
              00000B9F 
              00000E31 
              000003FA 
              00000AA4 
              000012C9 
              0000095D 
              00000504 
              0000053E 
              00000DCD 
              0000083C 
              00000D04 
              00000D53 
              000004AA 
              000004EA 
              00000524 
              000000E3 
              000001C4 
              00000CD6 
              00000D93 
              0000023C 
              0000060E 
              000004D8 
              000006E1         DCD              2878,2482,209,67,1054,351,3452,
55,1578,2798,1403,866,3510,226,4253,1907,1147,1773,4954,191,478,580,3280,496,19
61,160,3284,1355,4370,4557,1538,978,1187,176,3532,1120,4723,2027,1815,3359,3184
,1900,3170,842,4543,4917,1393,1183,4122,4924,2863,2666,3287,1816,536,1939,3180,
2025,2513,2534,589,2445,1842,2312,3675,2638,4948,3072,4215,4855,3474,4668,3634,
370,2428,4727,2975,3633,1018,2724,4809,2397,1284,1342,3533,2108,3332,3411,1194,
1258,1316,227,452,3286,3475,572,1550,1240,1761
  226 00000FA0         
  227 00000FA0         ;reverse sorted data case(worst case1)
  228 00000FA0         ;DCD 1000, 999, 998, 997, 996, 995, 994, 993, 992, 991, 
                       990, 989, 988, 987, 986, 985, 984, 983, 982, 981, 980, 9
                       79, 978, 977, 976, 975, 974, 973, 972, 971, 970, 969, 96
                       8, 967, 966, 965, 964, 963, 962, 961, 960, 959, 958, 957
                       , 956, 955, 954, 953, 952, 951, 950, 949, 948, 947, 946,
                        945, 944, 943, 942, 941, 940, 939, 938, 937, 936, 935, 
                       934, 933, 932, 931, 930, 929, 928, 927, 926, 925, 924, 9
                       23, 922, 921, 920, 919, 918, 917, 916, 915, 914, 913, 91
                       2, 911, 910, 909, 908, 907, 906, 905, 904, 903, 902, 901
                       
  229 00000FA0         ;DCD 900, 899, 898, 897, 896, 895, 894, 893, 892, 891, 8
                       90, 889, 888, 887, 886, 885, 884, 883, 882, 881, 880, 87
                       9, 878, 877, 876, 875, 874, 873, 872, 871, 870, 869, 868



ARM Macro Assembler    Page 28 


                       , 867, 866, 865, 864, 863, 862, 861, 860, 859, 858, 857,
                        856, 855, 854, 853, 852, 851, 850, 849, 848, 847, 846, 
                       845, 844, 843, 842, 841, 840, 839, 838, 837, 836, 835, 8
                       34, 833, 832, 831, 830, 829, 828, 827, 826, 825, 824, 82
                       3, 822, 821, 820, 819, 818, 817, 816, 815, 814, 813, 812
                       , 811, 810, 809, 808, 807, 806, 805, 804, 803, 802, 801 
                       
  230 00000FA0         ;DCD 800, 799, 798, 797, 796, 795, 794, 793, 792, 791, 7
                       90, 789, 788, 787, 786, 785, 784, 783, 782, 781, 780, 77
                       9, 778, 777, 776, 775, 774, 773, 772, 771, 770, 769, 768
                       , 767, 766, 765, 764, 763, 762, 761, 760, 759, 758, 757,
                        756, 755, 754, 753, 752, 751, 750, 749, 748, 747, 746, 
                       745, 744, 743, 742, 741, 740, 739, 738, 737, 736, 735, 7
                       34, 733, 732, 731, 730, 729, 728, 727, 726, 725, 724, 72
                       3, 722, 721, 720, 719, 718, 717, 716, 715, 714, 713, 712
                       , 711, 710, 709, 708, 707, 706, 705, 704, 703, 702, 701 
                       
  231 00000FA0         ;DCD 700, 699, 698, 697, 696, 695, 694, 693, 692, 691, 6
                       90, 689, 688, 687, 686, 685, 684, 683, 682, 681, 680, 67
                       9, 678, 677, 676, 675, 674, 673, 672, 671, 670, 669, 668
                       , 667, 666, 665, 664, 663, 662, 661, 660, 659, 658, 657,
                        656, 655, 654, 653, 652, 651, 650, 649, 648, 647, 646, 
                       645, 644, 643, 642, 641, 640, 639, 638, 637, 636, 635, 6
                       34, 633, 632, 631, 630, 629, 628, 627, 626, 625, 624, 62
                       3, 622, 621, 620, 619, 618, 617, 616, 615, 614, 613, 612
                       , 611, 610, 609, 608, 607, 606, 605, 604, 603, 602, 601 
                       
  232 00000FA0         ;DCD 600, 599, 598, 597, 596, 595, 594, 593, 592, 591, 5
                       90, 589, 588, 587, 586, 585, 584, 583, 582, 581, 580, 57
                       9, 578, 577, 576, 575, 574, 573, 572, 571, 570, 569, 568
                       , 567, 566, 565, 564, 563, 562, 561, 560, 559, 558, 557,
                        556, 555, 554, 553, 552, 551, 550, 549, 548, 547, 546, 
                       545, 544, 543, 542, 541, 540, 539, 538, 537, 536, 535, 5
                       34, 533, 532, 531, 530, 529, 528, 527, 526, 525, 524, 52
                       3, 522, 521, 520, 519, 518, 517, 516, 515, 514, 513, 512
                       , 511, 510, 509, 508, 507, 506, 505, 504, 503, 502, 501 
                       
  233 00000FA0         ;DCD 500, 499, 498, 497, 496, 495, 494, 493, 492, 491, 4
                       90, 489, 488, 487, 486, 485, 484, 483, 482, 481, 480, 47
                       9, 478, 477, 476, 475, 474, 473, 472, 471, 470, 469, 468
                       , 467, 466, 465, 464, 463, 462, 461, 460, 459, 458, 457,
                        456, 455, 454, 453, 452, 451, 450, 449, 448, 447, 446, 
                       445, 444, 443, 442, 441, 440, 439, 438, 437, 436, 435, 4
                       34, 433, 432, 431, 430, 429, 428, 427, 426, 425, 424, 42
                       3, 422, 421, 420, 419, 418, 417, 416, 415, 414, 413, 412
                       , 411, 410, 409, 408, 407, 406, 405, 404, 403, 402, 401 
                       
  234 00000FA0         ;DCD 400, 399, 398, 397, 396, 395, 394, 393, 392, 391, 3
                       90, 389, 388, 387, 386, 385, 384, 383, 382, 381, 380, 37
                       9, 378, 377, 376, 375, 374, 373, 372, 371, 370, 369, 368
                       , 367, 366, 365, 364, 363, 362, 361, 360, 359, 358, 357,
                        356, 355, 354, 353, 352, 351, 350, 349, 348, 347, 346, 
                       345, 344, 343, 342, 341, 340, 339, 338, 337, 336, 335, 3
                       34, 333, 332, 331, 330, 329, 328, 327, 326, 325, 324, 32
                       3, 322, 321, 320, 319, 318, 317, 316, 315, 314, 313, 312
                       , 311, 310, 309, 308, 307, 306, 305, 304, 303, 302, 301 
                       
  235 00000FA0         ;DCD 300, 299, 298, 297, 296, 295, 294, 293, 292, 291, 2
                       90, 289, 288, 287, 286, 285, 284, 283, 282, 281, 280, 27



ARM Macro Assembler    Page 29 


                       9, 278, 277, 276, 275, 274, 273, 272, 271, 270, 269, 268
                       , 267, 266, 265, 264, 263, 262, 261, 260, 259, 258, 257,
                        256, 255, 254, 253, 252, 251, 250, 249, 248, 247, 246, 
                       245, 244, 243, 242, 241, 240, 239, 238, 237, 236, 235, 2
                       34, 233, 232, 231, 230, 229, 228, 227, 226, 225, 224, 22
                       3, 222, 221, 220, 219, 218, 217, 216, 215, 214, 213, 212
                       , 211, 210, 209, 208, 207, 206, 205, 204, 203, 202, 201 
                       
  236 00000FA0         ;DCD 200, 199, 198, 197, 196, 195, 194, 193, 192, 191, 1
                       90, 189, 188, 187, 186, 185, 184, 183, 182, 181, 180, 17
                       9, 178, 177, 176, 175, 174, 173, 172, 171, 170, 169, 168
                       , 167, 166, 165, 164, 163, 162, 161, 160, 159, 158, 157,
                        156, 155, 154, 153, 152, 151, 150, 149, 148, 147, 146, 
                       145, 144, 143, 142, 141, 140, 139, 138, 137, 136, 135, 1
                       34, 133, 132, 131, 130, 129, 128, 127, 126, 125, 124, 12
                       3, 122, 121, 120, 119, 118, 117, 116, 115, 114, 113, 112
                       , 111, 110, 109, 108, 107, 106, 105, 104, 103, 102, 101
  237 00000FA0         ;DCD 100, 99, 98, 97, 96, 95, 94, 93, 92, 91, 90, 89, 88
                       , 87, 86, 85, 84, 83, 82, 81, 80, 79, 78, 77, 76, 75, 74
                       , 73, 72, 71, 70, 69, 68, 67, 66, 65, 64, 63, 62, 61, 60
                       , 59, 58, 57, 56, 55, 54, 53, 52, 51, 50, 49, 48, 47, 46
                       , 45, 44, 43, 42, 41, 40, 39, 38, 37, 36, 35, 34, 33, 32
                       , 31, 30, 29, 28, 27, 26, 25, 24, 23, 22, 21, 20, 19, 18
                       , 17, 16, 15, 14, 13, 12, 11, 10, 9, 8, 7, 6, 5, 4, 3, 2
                       , 1
  238 00000FA0         
  239 00000FA0         ;sorted data case(worst case2)
  240 00000FA0         ;DCD 2,14,15,21,28,32,36,39,45,50,58,59,63,66,74,77,86,9
                       2,102,104,108,109,123,126,127,130,132,134,138,139,142,14
                       4,147,156,161,164,166,170,175,184,202,207,208,217,218,22
                       1,230,231,251,252,277,299,300,302,309,318,319,329,330,33
                       2,334,337,341,344,351,363,370,372,376,389,391,393,403,40
                       4,410,411,420,424,426,431,433,444,451,458,469,471,474,47
                       6,480,484,487,496,499,506,509,510,516,518,522,526
  241 00000FA0         ;DCD 539,550,551,554,559,567,570,574,576,584,590,602,603
                       ,606,607,608,617,619,624,634,639,645,656,676,687,699,714
                       ,716,717,724,732,738,741,742,745,760,761,762,766,781,782
                       ,786,794,804,806,808,813,815,816,818,819,821,824,826,835
                       ,838,839,842,850,854,862,863,865,866,871,880,883,891,892
                       ,893,897,915,916,918,920,922,923,926,936,940,941,942,944
                       ,946,950,952,953,964,970,972,973,976,982,985,988,994,995
                       ,999,1003,1013
  242 00000FA0         ;DCD 1019,1028,1037,1049,1051,1056,1068,1085,1086,1087,1
                       088,1091,1095,1100,1105,1111,1115,1121,1123,1125,1137,11
                       42,1143,1146,1147,1152,1154,1157,1158,1161,1163,1166,116
                       7,1169,1173,1177,1194,1200,1207,1210,1212,1223,1226,1227
                       ,1236,1244,1247,1251,1254,1265,1273,1274,1278,1279,1281,
                       1283,1292,1295,1297,1299,1303,1305,1308,1312,1314,1318,1
                       320,1321,1322,1324,1327,1328,1331,1342,1347,1352,1363,13
                       75,1380,1386,1391,1393,1394,1399,1415,1416,1423,1430,143
                       9,1440,1449,1458,1461,1465,1473,1476,1481,1490,1494,1500
                       
  243 00000FA0         ;DCD 1505,1506,1508,1521,1536,1539,1547,1548,1555,1565,1
                       574,1577,1581,1582,1593,1595,1597,1599,1607,1608,1614,16
                       20,1624,1628,1631,1632,1633,1636,1639,1642,1643,1646,164
                       8,1652,1654,1661,1662,1663,1672,1673,1674,1675,1681,1689
                       ,1691,1711,1717,1725,1739,1740,1745,1746,1750,1759,1763,
                       1765,1771,1773,1776,1777,1783,1790,1791,1792,1794,1798,1
                       801,1809,1821,1825,1837,1840,1843,1847,1849,1858,1859,18



ARM Macro Assembler    Page 30 


                       61,1862,1867,1869,1875,1877,1879,1889,1900,1903,1904,190
                       7,1910,1912,1913,1917,1922,1928,1929,1932,1944,1945,1946
                       
  244 00000FA0         ;DCD 1951,1953,1972,1974,1977,1982,1984,1987,1990,1992,1
                       994,1996,1999,2001,2002,2006,2009,2019,2024,2027,2031,20
                       33,2039,2040,2044,2051,2052,2060,2072,2080,2084,2089,209
                       4,2097,2099,2102,2103,2109,2110,2111,2114,2115,2124,2137
                       ,2141,2155,2156,2158,2160,2174,2181,2203,2207,2209,2212,
                       2213,2215,2219,2224,2228,2229,2230,2234,2247,2253,2256,2
                       260,2262,2266,2269,2270,2274,2275,2276,2279,2281,2282,22
                       92,2300,2305,2315,2316,2326,2328,2337,2343,2347,2354,235
                       5,2358,2359,2360,2362,2363,2367,2370,2371,2372,2376,2377
                       
  245 00000FA0         ;DCD 2381,2383,2385,2388,2393,2394,2397,2398,2403,2404,2
                       407,2415,2417,2421,2427,2428,2435,2436,2439,2442,2449,24
                       54,2461,2467,2472,2476,2487,2490,2492,2494,2498,2502,250
                       8,2511,2517,2534,2546,2550,2553,2554,2556,2561,2568,2569
                       ,2571,2574,2576,2618,2624,2627,2631,2634,2638,2642,2650,
                       2652,2654,2655,2657,2663,2670,2671,2676,2680,2686,2689,2
                       696,2705,2709,2712,2716,2722,2724,2728,2735,2744,2746,27
                       57,2763,2768,2779,2787,2790,2803,2806,2813,2815,2816,281
                       9,2823,2825,2829,2834,2836,2841,2845,2846,2848,2853,2862
                       
  246 00000FA0         ;DCD 2863,2864,2870,2871,2874,2884,2887,2896,2897,2900,2
                       905,2907,2913,2914,2942,2948,2954,2961,2963,2965,2977,29
                       81,2983,2989,2993,2995,2999,3000,3001,3008,3010,3012,301
                       8,3019,3021,3022,3023,3027,3038,3039,3051,3052,3054,3056
                       ,3065,3066,3068,3070,3076,3077,3080,3088,3089,3091,3092,
                       3094,3096,3098,3102,3105,3118,3122,3123,3125,3134,3138,3
                       144,3148,3155,3160,3169,3179,3180,3181,3188,3195,3199,32
                       11,3215,3221,3223,3226,3231,3232,3234,3239,3243,3244,324
                       5,3258,3262,3263,3269,3279,3283,3285,3294,3296,3299,3302
                       
  247 00000FA0         ;DCD 3304,3307,3318,3327,3329,3333,3354,3358,3362,3368,3
                       372,3378,3380,3381,3397,3403,3417,3420,3421,3423,3428,34
                       32,3439,3441,3442,3448,3451,3462,3465,3468,3469,3477,348
                       7,3488,3492,3496,3502,3503,3509,3517,3521,3530,3531,3536
                       ,3539,3549,3558,3562,3566,3569,3574,3578,3593,3595,3597,
                       3598,3599,3609,3610,3617,3628,3629,3636,3641,3654,3657,3
                       658,3660,3664,3688,3691,3695,3704,3705,3706,3710,3711,37
                       23,3724,3726,3729,3730,3736,3738,3739,3745,3756,3757,376
                       8,3770,3773,3784,3786,3787,3809,3810,3812,3813,3816,3818
                       
  248 00000FA0         ;DCD 3833,3836,3840,3844,3862,3863,3875,3877,3878,3882,3
                       883,3886,3888,3895,3907,3911,3915,3918,3929,3930,3937,39
                       44,3947,3955,3956,3962,3970,3974,3975,3980,3981,3983,398
                       8,3989,3994,3999,4005,4008,4009,4013,4023,4024,4029,4033
                       ,4044,4045,4054,4061,4062,4070,4104,4107,4125,4126,4134,
                       4140,4142,4153,4175,4179,4189,4190,4205,4206,4209,4210,4
                       235,4245,4257,4274,4278,4299,4301,4320,4336,4342,4343,43
                       44,4345,4355,4357,4359,4372,4376,4377,4387,4388,4395,439
                       9,4413,4420,4423,4425,4431,4434,4440,4444,4447,4452,4453
                       
  249 00000FA0         ;DCD 4458,4460,4462,4465,4471,4487,4490,4503,4504,4514,4
                       527,4531,4540,4544,4547,4552,4554,4568,4580,4583,4584,45
                       96,4598,4599,4600,4605,4611,4614,4619,4628,4632,4633,463
                       6,4637,4638,4644,4650,4651,4653,4654,4656,4670,4672,4679
                       ,4683,4684,4689,4693,4694,4698,4699,4711,4724,4729,4735,
                       4744,4753,4760,4762,4778,4779,4780,4783,4791,4800,4802,4



ARM Macro Assembler    Page 31 


                       806,4807,4816,4817,4822,4825,4832,4836,4842,4847,4855,48
                       63,4864,4867,4874,4875,4876,4889,4891,4895,4906,4907,492
                       2,4926,4931,4933,4934,4942,4948,4956,4960,4988,4993,4995
                       
  250 00000FA0         
  251 00000FA0         ;example
  252 00000FA0         ;DCD 8,0,2,9,1,5,3,7,6,4
  253 00000FA0         ;DCD 8,6,4,9,0,5,2,3,7,1
  254 00000FA0         ;DCD 3,2,8,7,0,1,5,9,4,6
  255 00000FA0         ;DCD 1,3,0,7,2,5,4,6,9,8
  256 00000FA0         
  257 00000FA0         Search_data
  258 00000FA0         ;case1
  259 00000FA0         ;DCD 2005,4965,1342,499,1590,2603,3555,4758,4893,562,469
                       9,4621,824,4554,1871,4594,3853,1513,3693,1235,1319,715,1
                       583,3347,1256,121,639,2222,1972,609,623,1982,569,1677,79
                       7,124,2672,3081,3245,3356,3256,2827,2588,1363,647,2281,2
                       053,498,1011,2354,1873,1654,525,657,1200,1975,936,2469,1
                       333,1588,1226,918,1400,1362,1546,2529,2918,3530,3664,328
                       7,716,3855,2846,3920,3307,3981,2531,3974,1401,4039,1349,
                       2651,4051,822,1701,2428,2125,214,2452,2690,1866,3317,408
                       4,3669,4313,4023,3180,2624,2530,2209
  260 00000FA0         
  261 00000FA0         ;case2
  262 00000FA0         ;DCD 80,1047,224,1850,3005,3021,4229,4285,1883,4878,4723
                       ,2569,4711,4647,4603,4561,4355,1210,3978,3892,762,1604,2
                       447,2927,1076,226,2765,1201,351,0,2567,3164,626,2290,305
                       2,2254,10,2031,3381,2068,2408,2814,1620,440,1413,2354,23
                       89,2783,3447,3683,3527,2750,2860,2968,1773,2322,2762,182
                       7,2199,1691,3246,3444,2187,2258,623,158,700,1799,1264,18
                       15,1895,680,2862,1832,2583,3546,725,748,773,1760,3628,11
                       09,3668,2627,201,1602,3931,4001,2659,3944,517,1919,869,4
                       63,648,574,1758,3521,4179,4402  
  263 00000FA0         
  264 00000FA0         ;case3
  265 00000FA0         ;DCD 2883,2729,2595,4384,4677,2145,4735,2352,4156,4165,4
                       859,2114,2067,2649,2046,1113,4673,2096,659,2803,1667,142
                       9,2206,3869,841,1809,173,4577,1046,1797,2314,3022,4787,4
                       355,2304,2329,103,4080,1235,403,1464,2581,3813,4235,525,
                       190,4623,1486,4207,4874,2021,4292,2556,381,1357,1244,226
                       2,1618,433,2563,2644,4405,1763,1025,1776,3200,705,3140,3
                       937,3692,545,2593,4273,818,4318,4816,2658,4538,1587,968,
                       1380,4916,503,3,1882,174,690,3891,2654,1326,2720,1365,27
                       14,2144,4724,2317,3496,209,926,5000
  266 00000FA0         
  267 00000FA0         ;case4
  268 00000FA0 00000000 
              00000484 
              000004AC 
              00000890 
              00000DC7 
              00000EAF 
              000004FD 
              000012F4 
              00000107 
              00000D60 
              00001383 
              00000A1E 
              00000D8D 



ARM Macro Assembler    Page 32 


              00000853 
              00000903 
              00000298 
              00000A64 
              0000009D 
              000011B1 
              00001215 
              0000123C 
              00000D76 
              000012EC 
              00000467 
              000006D5 
              00000D1D 
              00001163 
              00000359 
              0000060C 
              00001280 
              000004E0 
              00000818 
              000007DA 
              00000E9C 
              0000119C 
              00000DA6 
              00000E81 
              0000055A 
              00000BFB 
              00000F0F 
              000006D9 
              00000A9B 
              00000C59 
              00000FF8 
              00000B7A 
              000005ED 
              00000BA6 
              00000264 
              00000A12 
              000011AD 
              0000069E 
              000004B9 
              00000069 
              00000E98 
              00000ACC 
              0000034B 
              0000082B 
              000009BD 
              00000ED0 
              00000487 
              00000A3D 
              000009BE 
              0000022E 
              000012FB 
              00000884 
              00000417 
              00000049 
              00000A84 
              00000D93 
              00000CF5 
              00000847 
              00000747 



ARM Macro Assembler    Page 33 


              000010CB 
              00000D83 
              0000035F 
              0000017C 
              000004C0 
              000010B0 
              00000721 
              00000B08 
              00000192 
              00000EB5 
              00000695 
              0000129A 
              00000471 
              00001346 
              00000C66 
              00000988 
              000007F5 
              00001340 
              00000180 
              0000089B 
              000002A4 
              00000852 
              00001250 
              000002E9 
              00000A85 
              000008C6 
              00000973 
              00000659         DCD              0,1156,1196,2192,3527,3759,1277
,4852,263,3424,4995,2590,3469,2131,2307,664,2660,157,4529,4629,4668,3446,4844,1
127,1749,3357,4451,857,1548,4736,1248,2072,2010,3740,4508,3494,3713,1370,3067,3
855,1753,2715,3161,4088,2938,1517,2982,612,2578,4525,1694,1209,105,3736,2764,84
3,2091,2493,3792,1159,2621,2494,558,4859,2180,1047,73,2692,3475,3317,2119,1863,
4299,3459,863,380,1216,4272,1825,2824,402,3765,1685,4762,1137,4934,3174,2440,20
37,4928,384,2203,676,2130,4688,745,2693,2246,2419,1625
  269 00001130         
  270 00001130         ;reverse case(not search)
  271 00001130         ;DCD 4736,1317,1448,3204,1242,3244,4192,4277,2317,1218,2
                       030,1741,3944,1954,2004,2147,3429,4867,4931,3159,4180,40
                       61,3898,1035,2156,2643,1272,2472,3703,1507,4021,3176,334
                       9,4860,1666,4799,4475,3629,1852,2507,4310,2225,4440,1273
                       ,1646,3391,3111,3386,1257,2372,2902,2807,3982,1017,3712,
                       1206,1647,2504,3294,4979,3186,3522,2975,1288,2911,3483,4
                       324,3285,2210,4780,3953,2248,1075,2917,4851,2689,3909,29
                       32,1690,1933,1326,4245,3042,4713,4502,2150,1840,4026,384
                       5,1631,2665,2527,3699,4872,3004,1664,1316,2458,1376,2972
                       
  272 00001130         
  273 00001130         ;reverse case(all search)
  274 00001130         ;DCD 602,396,728,73,564,152,512,229,189,670,813,224,460,
                       773,799,139,690,70,31,329,923,122,860,569,964,100,771,37
                       ,550,775,266,754,170,995,710,617,252,604,566,853,173,820
                       ,143,574,651,361,733,661,116,186,905,861,401,305,509,721
                       ,679,211,697,226,429,10,937,41,842,482,360,302,511,915,8
                       32,126,844,994,400,835,765,779,85,593,172,998,815,516,67
                       ,398,784,79,128,698,751,123,181,931,822,68,504,579,965,9
                       54
  275 00001130         
  276 00001130         ;reverse case(10's data search)
  277 00001130         ;DCD 10, 9, 8, 7, 6, 5, 4, 3, 2, 1, 2030,1741,3944,1954,



ARM Macro Assembler    Page 34 


                       2004,2147,3429,4867,4931,3159,4180,4061,3898,1035,2156,2
                       643,1272,2472,3703,1507,4021,3176,3349,4860,1666,4799,44
                       75,3629,1852,2507,4310,2225,4440,1273,1646,3391,3111,338
                       6,1257,2372,2902,2807,3982,1017,3712,1206,1647,2504,3294
                       ,4979,3186,3522,2975,1288,2911,3483,4324,3285,2210,4780,
                       3953,2248,1075,2917,4851,2689,3909,2932,1690,1933,1326,4
                       245,3042,4713,4502,2150,1840,4026,3845,1631,2665,2527,36
                       99,4872,3004,1664,1316,2458,1376,2972
  278 00001130         
  279 00001130         ;reverse case(20's data search)
  280 00001130         ;DCD 20, 19, 18, 17, 16, 15, 14, 13, 12, 11, 10, 9, 8, 7
                       , 6, 5, 4, 3, 2, 1,4180,4061,3898,1035,2156,2643,1272,24
                       72,3703,1507,4021,3176,3349,4860,1666,4799,4475,3629,185
                       2,2507,4310,2225,4440,1273,1646,3391,3111,3386,1257,2372
                       ,2902,2807,3982,1017,3712,1206,1647,2504,3294,4979,3186,
                       3522,2975,1288,2911,3483,4324,3285,2210,4780,3953,2248,1
                       075,2917,4851,2689,3909,2932,1690,1933,1326,4245,3042,47
                       13,4502,2150,1840,4026,3845,1631,2665,2527,3699,4872,300
                       4,1664,1316,2458,1376,2972
  281 00001130         
  282 00001130         ;reverse case(30's data search)
  283 00001130         ;DCD 30, 29, 28, 27, 26, 25, 24, 23, 22, 21, 20, 19, 18,
                        17, 16, 15, 14, 13, 12, 11, 10, 9, 8, 7, 6, 5, 4, 3, 2,
                        1,4021,3176,3349,4860,1666,4799,4475,3629,1852,2507,431
                       0,2225,4440,1273,1646,3391,3111,3386,1257,2372,2902,2807
                       ,3982,1017,3712,1206,1647,2504,3294,4979,3186,3522,2975,
                       1288,2911,3483,4324,3285,2210,4780,3953,2248,1075,2917,4
                       851,2689,3909,2932,1690,1933,1326,4245,3042,4713,4502,21
                       50,1840,4026,3845,1631,2665,2527,3699,4872,3004,1664,131
                       6,2458,1376,2972
  284 00001130         
  285 00001130 00 00   Array_data
                               DCW              0
  286 00001132         
  287 00001132         
  288 00001132                 END
Command Line: --debug --xref --cpu=ARM9E --apcs=interwork --depend=.\project.d 
-o.\project.o -IC:\Keil\ARM\RV31\INC -IC:\Keil\ARM\CMSIS\Include --predefine="_
_EVAL SETA 1" --list=.\project.lst project.s



ARM Macro Assembler    Page 1 Alphabetic symbol ordering
Relocatable symbols

Bi_Search 000000A0

Symbol: Bi_Search
   Definitions
      At line 61 in file project.s
   Uses
      At line 74 in file project.s
Comment: Bi_Search used once
Bi_SearchMain 00000098

Symbol: Bi_SearchMain
   Definitions
      At line 57 in file project.s
   Uses
      At line 42 in file project.s
Comment: Bi_SearchMain used once
Exit 000001DC

Symbol: Exit
   Definitions
      At line 168 in file project.s
   Uses
      At line 55 in file project.s
Comment: Exit used once
Main 00000000

Symbol: Main
   Definitions
      At line 4 in file project.s
   Uses
      None
Comment: Main unused
PLoop 00000128

Symbol: PLoop
   Definitions
      At line 114 in file project.s
   Uses
      At line 158 in file project.s
Comment: PLoop used once
Partition 00000118

Symbol: Partition
   Definitions
      At line 108 in file project.s
   Uses
      At line 91 in file project.s
Comment: Partition used once
PartitionExit 000001C8

Symbol: PartitionExit
   Definitions
      At line 160 in file project.s
   Uses
      At line 122 in file project.s
      At line 131 in file project.s
      At line 140 in file project.s
      At line 149 in file project.s




ARM Macro Assembler    Page 2 Alphabetic symbol ordering
Relocatable symbols

QLoop 000000E4

Symbol: QLoop
   Definitions
      At line 88 in file project.s
   Uses
      At line 100 in file project.s
      At line 105 in file project.s

QuickSort 000000CC

Symbol: QuickSort
   Definitions
      At line 80 in file project.s
   Uses
      At line 10 in file project.s
Comment: QuickSort used once
Result 000001EC

Symbol: Result
   Definitions
      At line 174 in file project.s
   Uses
      At line 40 in file project.s
Comment: Result used once
ST 000001E8

Symbol: ST
   Definitions
      At line 173 in file project.s
   Uses
      At line 5 in file project.s
Comment: ST used once
SearchFail 00000088

Symbol: SearchFail
   Definitions
      At line 51 in file project.s
   Uses
      At line 63 in file project.s
Comment: SearchFail used once
SearchSuccess 00000078

Symbol: SearchSuccess
   Definitions
      At line 45 in file project.s
   Uses
      At line 75 in file project.s
Comment: SearchSuccess used once
StoreArray 00000018

Symbol: StoreArray
   Definitions
      At line 13 in file project.s
   Uses
      None
Comment: StoreArray unused
StoreLoop 00000020




ARM Macro Assembler    Page 3 Alphabetic symbol ordering
Relocatable symbols

Symbol: StoreLoop
   Definitions
      At line 17 in file project.s
   Uses
      At line 33 in file project.s
Comment: StoreLoop used once
project 00000000

Symbol: project
   Definitions
      At line 1 in file project.s
   Uses
      None
Comment: project unused
16 symbols



ARM Macro Assembler    Page 1 Alphabetic symbol ordering
Relocatable symbols

Array_data 00001130

Symbol: Array_data
   Definitions
      At line 285 in file project.s
   Uses
      At line 8 in file project.s
Comment: Array_data used once
Random_data 00000000

Symbol: Random_data
   Definitions
      At line 178 in file project.s
   Uses
      At line 6 in file project.s
Comment: Random_data used once
Search_data 00000FA0

Symbol: Search_data
   Definitions
      At line 257 in file project.s
   Uses
      At line 7 in file project.s
Comment: Search_data used once
memory 00000000

Symbol: memory
   Definitions
      At line 177 in file project.s
   Uses
      None
Comment: memory unused
4 symbols
353 symbols in table
